(lp0
(lp1
I1
aI00
aI00
aI01
aI00
aa(lp2
I2
aI00
aI01
aI00
aI01
aa(lp3
I3
aI00
aI01
aI00
aI00
aa(lp4
I4
aI00
aI01
aI00
aI00
aa(lp5
I5
aI00
aI00
aI00
aI00
aa(lp6
I6
aI00
aI00
aI00
aI00
aa(lp7
I7
aI00
aI00
aI00
aI00
aa(lp8
I8
aI00
aI00
aI00
aI00
aa(lp9
I9
aI01
aI00
aI00
aI00
aa(lp10
I10
aI01
aI00
aI00
aI00
aa(lp11
I11
aI01
aI00
aI00
aI00
aa(lp12
I12
aI00
aI00
aI01
aI00
aa(lp13
I13
aI00
aI00
aI00
aI01
aa(lp14
I14
aI00
aI00
aI00
aI00
aa(lp15
I15
aI00
aI01
aI00
aI00
aa(lp16
I16
aI00
aI01
aI00
aI00
aa(lp17
I17
aI00
aI00
aI01
aI00
aa(lp18
I18
aI00
aI01
aI00
aI01
aa(lp19
I19
aI00
aI00
aI01
aI00
aa(lp20
I20
aI00
aI01
aI01
aI01
aa(lp21
I21
aI00
aI01
aI01
aI01
aa(lp22
I22
aI01
aI00
aI00
aI00
aa(lp23
I23
aI01
aI00
aI00
aI00
aa(lp24
I24
aI00
aI00
aI00
aI00
aa(lp25
I25
aI01
aI00
aI01
aI00
aa(lp26
I26
aI00
aI01
aI00
aI01
aa(lp27
I27
aI01
aI00
aI00
aI00
aa(lp28
I28
aI01
aI00
aI00
aI00
aa(lp29
I29
aI00
aI00
aI01
aI00
aa(lp30
I30
aI00
aI00
aI00
aI01
aa(lp31
I31
aI00
aI01
aI01
aI00
aa(lp32
I32
aI00
aI01
aI00
aI01
aa(lp33
I33
aI01
aI00
aI01
aI00
aa(lp34
I34
aI00
aI01
aI00
aI01
aa(lp35
I35
aI00
aI00
aI00
aI00
aa(lp36
I36
aI00
aI00
aI01
aI00
aa(lp37
I37
aI00
aI01
aI00
aI01
aa(lp38
I38
aI01
aI00
aI00
aI00
aa(lp39
I39
aI01
aI00
aI01
aI00
aa(lp40
I40
aI00
aI01
aI00
aI01
aa(lp41
I41
aI01
aI00
aI01
aI00
aa(lp42
I42
aI00
aI01
aI00
aI01
aa(lp43
I43
aI00
aI00
aI00
aI00
aa(lp44
I44
aI01
aI00
aI01
aI00
aa(lp45
I45
aI00
aI00
aI00
aI01
aa(lp46
I46
aI00
aI00
aI00
aI00
aa(lp47
I47
aI01
aI00
aI01
aI00
aa(lp48
I48
aI00
aI00
aI00
aI01
aa(lp49
I49
aI01
aI00
aI00
aI00
aa.